; Function Attrs: mustprogress uwtable
define internal fastcc void @_ZN11OpenImageIO6v3_1_0L9copy_deepERNS0_8ImageBufERKS1_NS0_3ROIEi(ptr noundef nonnull align 8 dereferenceable(16) %0, ptr noundef nonnull align 8 dereferenceable(16) %1, ptr noundef readonly byval(%"struct.OpenImageIO::v3_1_0::ROI") align 8 captures(none) %2, i32 noundef %3) unnamed_addr #5 personality ptr @__gxx_personality_v0 {
  %5 = alloca %"class.OpenImageIO::v3_1_0::paropt", align 8
  %6 = alloca %"class.std::function", align 8
  %7 = tail call noundef zeroext i1 @_ZNK11OpenImageIO6v3_1_08ImageBuf4deepEv(ptr noundef nonnull align 8 dereferenceable(16) %0)
  br i1 %7, label %8, label %.critedge, !prof !23

8:                                                ; preds = %4
  %9 = tail call noundef zeroext i1 @_ZNK11OpenImageIO6v3_1_08ImageBuf4deepEv(ptr noundef nonnull align 8 dereferenceable(16) %1)
  br i1 %9, label %12, label %.critedge, !prof !23

.critedge:                                        ; preds = %4, %8
  %10 = load ptr, ptr @stderr, align 8, !tbaa !24
  %11 = tail call i32 (ptr, ptr, ...) @fprintf(ptr noundef %10, ptr noundef nonnull @.str.1, ptr noundef nonnull @.str.2, i32 noundef 157, ptr noundef nonnull @__FUNCTION__._ZN11OpenImageIO6v3_1_0L9copy_deepERNS0_8ImageBufERKS1_NS0_3ROIEi, ptr noundef nonnull @.str.69) #29
  br label %12

12:                                               ; preds = %8, %.critedge
  store i32 %3, ptr %5, align 8, !tbaa !30
  %13 = getelementptr inbounds nuw i8, ptr %5, i64 4
  store i16 0, ptr %13, align 4, !tbaa !36
  %14 = getelementptr inbounds nuw i8, ptr %5, i64 6
  store i16 1, ptr %14, align 2, !tbaa !37
  %15 = getelementptr inbounds nuw i8, ptr %5, i64 8
  store i64 1024, ptr %15, align 8, !tbaa !38
  %16 = getelementptr inbounds nuw i8, ptr %5, i64 16
  store ptr null, ptr %16, align 8, !tbaa !39
  %17 = getelementptr inbounds nuw i8, ptr %5, i64 24
  store i8 0, ptr %17, align 8, !tbaa !40
  %18 = getelementptr inbounds nuw i8, ptr %6, i64 16
  %19 = getelementptr inbounds nuw i8, ptr %6, i64 24
  store ptr %0, ptr %6, align 8, !tbaa !41
  %.sroa.5.0..sroa_idx = getelementptr inbounds nuw i8, ptr %6, i64 8
  store ptr %1, ptr %.sroa.5.0..sroa_idx, align 8, !tbaa !41
  store ptr @"_ZNSt17_Function_handlerIFvN11OpenImageIO6v3_1_03ROIEEZNS1_L9copy_deepERNS1_8ImageBufERKS4_S2_iE3$_0E9_M_invokeERKSt9_Any_dataOS2_", ptr %19, align 8, !tbaa !46
  store ptr @"_ZNSt17_Function_handlerIFvN11OpenImageIO6v3_1_03ROIEEZNS1_L9copy_deepERNS1_8ImageBufERKS4_S2_iE3$_0E10_M_managerERSt9_Any_dataRKSA_St18_Manager_operation", ptr %18, align 8, !tbaa !49
  invoke void @_ZN11OpenImageIO6v3_1_012ImageBufAlgo14parallel_imageENS0_3ROIENS0_6paroptESt8functionIFvS2_EE(ptr noundef nonnull byval(%"struct.OpenImageIO::v3_1_0::ROI") align 8 %2, ptr noundef nonnull byval(%"class.OpenImageIO::v3_1_0::paropt") align 8 %5, ptr noundef nonnull %6)
          to label %20 unwind label %27

20:                                               ; preds = %12
  %21 = load ptr, ptr %18, align 8, !tbaa !49
  %.not.i = icmp eq ptr %21, null
  br i1 %.not.i, label %_ZNSt14_Function_baseD2Ev.exit, label %22

22:                                               ; preds = %20
  %23 = invoke noundef zeroext i1 %21(ptr noundef nonnull align 8 dereferenceable(32) %6, ptr noundef nonnull align 8 dereferenceable(32) %6, i32 noundef 3)
          to label %_ZNSt14_Function_baseD2Ev.exit unwind label %24

24:                                               ; preds = %22
  %25 = landingpad { ptr, i32 }
          catch ptr null
  %26 = extractvalue { ptr, i32 } %25, 0
  call void @__clang_call_terminate(ptr %26) #31
  unreachable

_ZNSt14_Function_baseD2Ev.exit:                   ; preds = %20, %22
  ret void

27:                                               ; preds = %12
  %28 = landingpad { ptr, i32 }
          cleanup
  %29 = load ptr, ptr %18, align 8, !tbaa !49
  %.not.i6 = icmp eq ptr %29, null
  br i1 %.not.i6, label %_ZNSt14_Function_baseD2Ev.exit7, label %30

30:                                               ; preds = %27
  %31 = invoke noundef zeroext i1 %29(ptr noundef nonnull align 8 dereferenceable(32) %6, ptr noundef nonnull align 8 dereferenceable(32) %6, i32 noundef 3)
          to label %_ZNSt14_Function_baseD2Ev.exit7 unwind label %32

32:                                               ; preds = %30
  %33 = landingpad { ptr, i32 }
          catch ptr null
  %34 = extractvalue { ptr, i32 } %33, 0
  call void @__clang_call_terminate(ptr %34) #31
  unreachable

_ZNSt14_Function_baseD2Ev.exit7:                  ; preds = %27, %30
  resume { ptr, i32 } %28
}